; Function Attrs: nofree norecurse nosync nounwind memory(argmem: readwrite) uwtable
define internal void @blend_heat_8bit(ptr noundef readonly captures(none) %0, i64 noundef %1, ptr noundef readonly captures(none) %2, i64 noundef %3, ptr noundef writeonly captures(none) %4, i64 noundef %5, i64 noundef %6, i64 noundef %7, ptr noundef readonly captures(none) %8, ptr readnone captures(none) %9) #6 {
  %11 = getelementptr inbounds nuw i8, ptr %8, i64 8
  %12 = load double, ptr %11, align 8, !tbaa !70
  %13 = fptrunc nsz double %12 to float
  %14 = icmp sgt i64 %7, 0
  %15 = icmp sgt i64 %6, 0
  %or.cond = and i1 %14, %15
  br i1 %or.cond, label %.preheader.us, label %._crit_edge51

.preheader.us:                                    ; preds = %10, %._crit_edge.us
  %indvars.iv55 = phi i64 [ %indvars.iv.next56, %._crit_edge.us ], [ 0, %10 ]
  %.04049.us = phi ptr [ %38, %._crit_edge.us ], [ %4, %10 ]
  %.04148.us = phi ptr [ %40, %._crit_edge.us ], [ %2, %10 ]
  %.04247.us = phi ptr [ %39, %._crit_edge.us ], [ %0, %10 ]
  br label %16

16:                                               ; preds = %.preheader.us, %30
  %indvars.iv = phi i64 [ 0, %.preheader.us ], [ %indvars.iv.next, %30 ]
  %17 = getelementptr inbounds nuw i8, ptr %.04247.us, i64 %indvars.iv
  %18 = load i8, ptr %17, align 1, !tbaa !89
  %19 = uitofp i8 %18 to float
  %20 = icmp eq i8 %18, 0
  br i1 %20, label %30, label %21

21:                                               ; preds = %16
  %22 = getelementptr inbounds nuw i8, ptr %.04148.us, i64 %indvars.iv
  %23 = load i8, ptr %22, align 1, !tbaa !89
  %24 = xor i8 %23, -1
  %25 = zext i8 %24 to i16
  %26 = mul nuw i16 %25, %25
  %.rhs.trunc.us = zext i8 %18 to i16
  %27 = udiv i16 %26, %.rhs.trunc.us
  %.zext.us = zext i16 %27 to i32
  %28 = icmp ugt i16 %27, 255
  %29 = sub nuw nsw i32 255, %.zext.us
  %spec.select.us = select i1 %28, i32 0, i32 %29
  br label %30

30:                                               ; preds = %21, %16
  %31 = phi i32 [ %spec.select.us, %21 ], [ 0, %16 ]
  %32 = zext i8 %18 to i32
  %33 = sub nsw i32 %31, %32
  %34 = sitofp i32 %33 to float
  %35 = tail call nsz float @llvm.fmuladd.f32(float %34, float %13, float %19)
  %36 = fptoui float %35 to i8
  %37 = getelementptr inbounds nuw i8, ptr %.04049.us, i64 %indvars.iv
  store i8 %36, ptr %37, align 1, !tbaa !89
  %indvars.iv.next = add nuw nsw i64 %indvars.iv, 1
  %exitcond.not = icmp eq i64 %indvars.iv.next, %6
  br i1 %exitcond.not, label %._crit_edge.us, label %16, !llvm.loop !124

._crit_edge.us:                                   ; preds = %30
  %38 = getelementptr inbounds i8, ptr %.04049.us, i64 %5
  %39 = getelementptr inbounds i8, ptr %.04247.us, i64 %1
  %40 = getelementptr inbounds i8, ptr %.04148.us, i64 %3
  %indvars.iv.next56 = add nuw nsw i64 %indvars.iv55, 1
  %exitcond58.not = icmp eq i64 %indvars.iv.next56, %7
  br i1 %exitcond58.not, label %._crit_edge51, label %.preheader.us, !llvm.loop !125

._crit_edge51:                                    ; preds = %._crit_edge.us, %10
  ret void
}